target datalayout = "e-m:e-p270:32:32-p271:32:32-p272:64:64-i64:64-i128:128-f80:128-n8:16:32:64-S128"
target triple = "x86_64-pc-linux-gnu"

%struct.pmix_tma = type { ptr, ptr, ptr, ptr, ptr, ptr, ptr, ptr }
%struct.pmix_hash_element_t = type { i32, %union.anon, ptr, ptr }
%union.anon = type { %struct.anon }
%struct.anon = type { ptr, i64 }

; Function Attrs: inlinehint nounwind uwtable
define internal void @pmix_tma_free(ptr noundef %0, ptr noundef %1) #2 {
  %3 = alloca ptr, align 8
  %4 = alloca ptr, align 8
  store ptr %0, ptr %3, align 8, !tbaa !26
  store ptr %1, ptr %4, align 8, !tbaa !42
  %5 = load ptr, ptr %3, align 8, !tbaa !26
  %6 = icmp ne ptr null, %5
  br i1 %6, label %7, label %13

7:                                                ; preds = %2
  %8 = load ptr, ptr %3, align 8, !tbaa !26
  %9 = getelementptr inbounds nuw %struct.pmix_tma, ptr %8, i32 0, i32 5
  %10 = load ptr, ptr %9, align 8, !tbaa !58
  %11 = load ptr, ptr %3, align 8, !tbaa !26
  %12 = load ptr, ptr %4, align 8, !tbaa !42
  call void %10(ptr noundef %11, ptr noundef %12)
  br label %15

13:                                               ; preds = %2
  %14 = load ptr, ptr %4, align 8, !tbaa !42
  call void @free(ptr noundef %14) #9
  br label %15

15:                                               ; preds = %13, %7
  ret void
}

; Function Attrs: nounwind uwtable
define internal void @pmix_hash_destruct_elt_ptr(ptr noundef %0) #0 {
  %2 = alloca ptr, align 8
  %3 = alloca ptr, align 8
  store ptr %0, ptr %2, align 8, !tbaa !34
  %4 = load ptr, ptr %2, align 8, !tbaa !34
  %5 = getelementptr inbounds nuw %struct.pmix_hash_element_t, ptr %4, i32 0, i32 1
  %6 = getelementptr inbounds nuw %struct.anon, ptr %5, i32 0, i32 1
  store i64 0, ptr %6, align 8, !tbaa !43
  call void @llvm.lifetime.start.p0(i64 8, ptr %3) #9
  %7 = load ptr, ptr %2, align 8, !tbaa !34
  %8 = getelementptr inbounds nuw %struct.pmix_hash_element_t, ptr %7, i32 0, i32 1
  %9 = getelementptr inbounds nuw %struct.anon, ptr %8, i32 0, i32 0
  %10 = load ptr, ptr %9, align 8, !tbaa !43
  store ptr %10, ptr %3, align 8, !tbaa !42
  %11 = load ptr, ptr %3, align 8, !tbaa !42
  %12 = icmp ne ptr null, %11
  br i1 %12, label %13, label %21

13:                                               ; preds = %1
  %14 = load ptr, ptr %2, align 8, !tbaa !34
  %15 = getelementptr inbounds nuw %struct.pmix_hash_element_t, ptr %14, i32 0, i32 1
  %16 = getelementptr inbounds nuw %struct.anon, ptr %15, i32 0, i32 0
  store ptr null, ptr %16, align 8, !tbaa !43
  %17 = load ptr, ptr %2, align 8, !tbaa !34
  %18 = getelementptr inbounds nuw %struct.pmix_hash_element_t, ptr %17, i32 0, i32 2
  %19 = load ptr, ptr %18, align 8, !tbaa !44
  %20 = load ptr, ptr %3, align 8, !tbaa !42
  call void @pmix_tma_free(ptr noundef %19, ptr noundef %20)
  br label %21

21:                                               ; preds = %13, %1
  call void @llvm.lifetime.end.p0(i64 8, ptr %3) #9
  ret void
}