; Function Attrs: nounwind uwtable
define internal void @pmix_hash_destruct_elt_ptr(ptr noundef captures(none) initializes((16, 24)) %0) #1 {
  %2 = getelementptr inbounds nuw i8, ptr %0, i64 8
  %3 = getelementptr inbounds nuw i8, ptr %0, i64 16
  store i64 0, ptr %3, align 8, !tbaa !36
  %4 = load ptr, ptr %2, align 8, !tbaa !36
  %.not = icmp eq ptr %4, null
  br i1 %.not, label %pmix_tma_free.exit, label %5

5:                                                ; preds = %1
  store ptr null, ptr %2, align 8, !tbaa !36
  %6 = getelementptr inbounds nuw i8, ptr %0, i64 24
  %7 = load ptr, ptr %6, align 8, !tbaa !38
  %.not.i = icmp eq ptr %7, null
  br i1 %.not.i, label %11, label %8

8:                                                ; preds = %5
  %9 = getelementptr inbounds nuw i8, ptr %7, i64 40
  %10 = load ptr, ptr %9, align 8, !tbaa !28
  tail call void %10(ptr noundef nonnull %7, ptr noundef nonnull %4) #13
  br label %pmix_tma_free.exit

11:                                               ; preds = %5
  tail call void @free(ptr noundef nonnull %4) #13
  br label %pmix_tma_free.exit

pmix_tma_free.exit:                               ; preds = %11, %8, %1
  ret void
}